 zlibwapi

 Timestamp is 5a7ea86b (Sat Feb 10 09:08:11 2018)

 Preferred load address is 0000000180000000

 Start         Length     Name                   Class
 0001:00000000 0002cc80H .text$mn                CODE
 0001:0002cc80 00001110H .text$mn$00             CODE
 0001:0002dd90 00001100H .text$x                 CODE
 0002:00000000 00000110H .CRT$XCA                DATA
 0002:00000110 00000110H .CRT$XCZ                DATA
 0002:00000220 00000110H .CRT$XIA                DATA
 0002:00000330 00000110H .CRT$XIZ                DATA
 0002:00000440 00000110H .CRT$XPA                DATA
 0002:00000550 00000110H .CRT$XPZ                DATA
 0002:00000660 00000110H .CRT$XTA                DATA
 0002:00000770 00000110H .CRT$XTZ                DATA
 0002:00000880 00004eb0H .rdata                  DATA
 0002:00005730 000001a8H .rdata$zzzdbg           DATA
 0002:000058d8 00000110H .rtc$IAA                DATA
 0002:000059e8 00000110H .rtc$IZZ                DATA
 0002:00005af8 00000110H .rtc$TAA                DATA
 0002:00005c08 00000110H .rtc$TZZ                DATA
 0002:00005d18 00000e68H .xdata                  DATA
 0002:00006b80 00001091H .edata                  DATA
 0003:00000000 000009a0H .data                   DATA
 0003:000009a0 00000751H .bss                    DATA
 0004:00000000 0000120cH .pdata                  DATA
 0005:00000000 00000380H .idata$5                DATA
 0005:00000380 0000003cH .idata$2                DATA
 0005:000003bc 00000014H .idata$3                DATA
 0005:000003d0 00000380H .idata$4                DATA
 0005:00000750 000005e3H .idata$6                DATA
 0006:00000000 0000013fH .00cfg                  DATA
 0007:00000000 00000170H .rsrc$01                DATA
 0007:00000170 000004dcH .rsrc$02                DATA

  Address         Publics by Value              Rva+Base               Lib:Object

 0000:00000000       __dynamic_value_reloc_table 0000000000000000     <absolute>
 0000:00000000       __guard_longjmp_table      0000000000000000     <absolute>
 0000:00000000       ___safe_se_handler_table   0000000000000000     <absolute>
 0000:00000000       __guard_iat_table          0000000000000000     <absolute>
 0000:00000000       __hybrid_code_map_count    0000000000000000     <absolute>
 0000:00000000       __hybrid_auxiliary_iat     0000000000000000     <absolute>
 0000:00000000       __guard_iat_count          0000000000000000     <absolute>
 0000:00000000       __enclave_config           0000000000000000     <absolute>
 0000:00000000       __guard_fids_table         0000000000000000     <absolute>
 0000:00000000       ___safe_se_handler_count   0000000000000000     <absolute>
 0000:00000000       __guard_fids_count         0000000000000000     <absolute>
 0000:00000000       __guard_longjmp_count      0000000000000000     <absolute>
 0000:00000000       __hybrid_code_map          0000000000000000     <absolute>
 0000:00000100       __guard_flags              0000000000000100     <absolute>
 0000:00000000       __ImageBase                0000000180000000     <linker-defined>
 0001:00000a60       longest_match              0000000180001a60 f   gvmat64.obj
 0001:00000d38       match_init                 0000000180001d38 f   gvmat64.obj
 0001:00000df0       inffas8664fnc              0000000180001df0 f   inffasx64.obj
 0001:000011d0       adler32                    00000001800021d0 f   adler32.obj
 0001:00001210       adler32_z                  0000000180002210 f   adler32.obj
 0001:00001a20       adler32_combine            0000000180002a20 f   adler32.obj
 0001:00001b90       adler32_combine64          0000000180002b90 f   adler32.obj
 0001:00001e40       compress                   0000000180002e40 f   compress.obj
 0001:00001e90       compress2                  0000000180002e90 f   compress.obj
 0001:00002050       compressBound              0000000180003050 f   compress.obj
 0001:00002110       crc32                      0000000180003110 f   crc32.obj
 0001:00002150       crc32_z                    0000000180003150 f   crc32.obj
 0001:000024c0       crc32_combine              00000001800034c0 f   crc32.obj
 0001:00002500       get_crc_table              0000000180003500 f   crc32.obj
 0001:000037c0       crc32_combine64            00000001800047c0 f   crc32.obj
 0001:00003da0       deflate                    0000000180004da0 f   deflate.obj
 0001:000052b0       deflateEnd                 00000001800062b0 f   deflate.obj
 0001:000053f0       deflateSetDictionary       00000001800063f0 f   deflate.obj
 0001:00005770       deflateGetDictionary       0000000180006770 f   deflate.obj
 0001:00005850       deflateCopy                0000000180006850 f   deflate.obj
 0001:00005b50       deflateReset               0000000180006b50 f   deflate.obj
 0001:00005b90       deflateParams              0000000180006b90 f   deflate.obj
 0001:00005de0       deflateTune                0000000180006de0 f   deflate.obj
 0001:00005e70       deflateBound               0000000180006e70 f   deflate.obj
 0001:00006080       deflatePending             0000000180007080 f   deflate.obj
 0001:000060f0       deflatePrime               00000001800070f0 f   deflate.obj
 0001:00006220       deflateSetHeader           0000000180007220 f   deflate.obj
 0001:00006280       deflateInit_               0000000180007280 f   deflate.obj
 0001:000062e0       deflateInit2_              00000001800072e0 f   deflate.obj
 0001:00006770       deflateResetKeep           0000000180007770 f   deflate.obj
 0001:0000ba40       gzclose                    000000018000ca40 f   gzclose.obj
 0001:0000bab0       gzdopen                    000000018000cab0 f   gzlib.obj
 0001:0000bb30       gzbuffer                   000000018000cb30 f   gzlib.obj
 0001:0000bbd0       gzrewind                   000000018000cbd0 f   gzlib.obj
 0001:0000bc60       gzeof                      000000018000cc60 f   gzlib.obj
 0001:0000bcd0       gzerror                    000000018000ccd0 f   gzlib.obj
 0001:0000bd90       gzclearerr                 000000018000cd90 f   gzlib.obj
 0001:0000be10       gzopen                     000000018000ce10 f   gzlib.obj
 0001:0000be40       gzseek                     000000018000ce40 f   gzlib.obj
 0001:0000bea0       gztell                     000000018000cea0 f   gzlib.obj
 0001:0000bef0       gzoffset                   000000018000cef0 f   gzlib.obj
 0001:0000bf40       gzopen_w                   000000018000cf40 f   gzlib.obj
 0001:0000bf70       gzopen64                   000000018000cf70 f   gzlib.obj
 0001:0000bfa0       gzseek64                   000000018000cfa0 f   gzlib.obj
 0001:0000c2b0       gztell64                   000000018000d2b0 f   gzlib.obj
 0001:0000c330       gzoffset64                 000000018000d330 f   gzlib.obj
 0001:0000c3f0       gz_error                   000000018000d3f0 f   gzlib.obj
 0001:0000cee0       __local_stdio_printf_options 000000018000dee0 f i gzlib.obj
 0001:0000cef0       snprintf                   000000018000def0 f i gzlib.obj
 0001:0000cf60       vsnprintf                  000000018000df60 f i gzlib.obj
 0001:0000d000       gzread                     000000018000e000 f   gzread.obj
 0001:0000d0d0       gzfread                    000000018000e0d0 f   gzread.obj
 0001:0000d1c0       gzgets                     000000018000e1c0 f   gzread.obj
 0001:0000d3f0       gzgetc                     000000018000e3f0 f   gzread.obj
 0001:0000d4f0       gzungetc                   000000018000e4f0 f   gzread.obj
 0001:0000d740       gzdirect                   000000018000e740 f   gzread.obj
 0001:0000d7a0       gzclose_r                  000000018000e7a0 f   gzread.obj
 0001:0000d8a0       gzgetc_                    000000018000e8a0 f   gzread.obj
 0001:0000e8a0       gzsetparams                000000018000f8a0 f   gzwrite.obj
 0001:0000e9d0       gzwrite                    000000018000f9d0 f   gzwrite.obj
 0001:0000ea60       gzfwrite                   000000018000fa60 f   gzwrite.obj
 0001:0000eb40       gzprintf                   000000018000fb40 f   gzwrite.obj
 0001:0000eba0       gzputs                     000000018000fba0 f   gzwrite.obj
 0001:0000ec40       gzputc                     000000018000fc40 f   gzwrite.obj
 0001:0000edc0       gzflush                    000000018000fdc0 f   gzwrite.obj
 0001:0000ee80       gzclose_w                  000000018000fe80 f   gzwrite.obj
 0001:0000efc0       gzvprintf                  000000018000ffc0 f   gzwrite.obj
 0001:0000fed0       inflateBack                0000000180010ed0 f   infback.obj
 0001:00011b50       inflateBackEnd             0000000180012b50 f   infback.obj
 0001:00011bc0       inflateBackInit_           0000000180012bc0 f   infback.obj
 0001:00012530       inflate_fast               0000000180013530 f   inffas8664.obj
 0001:000129e0       inflate                    00000001800139e0 f   inflate.obj
 0001:00015860       inflateEnd                 0000000180016860 f   inflate.obj
 0001:000158f0       inflateSetDictionary       00000001800168f0 f   inflate.obj
 0001:000159f0       inflateGetDictionary       00000001800169f0 f   inflate.obj
 0001:00015ad0       inflateSync                0000000180016ad0 f   inflate.obj
 0001:00015ce0       inflateCopy                0000000180016ce0 f   inflate.obj
 0001:00015f40       inflateReset               0000000180016f40 f   inflate.obj
 0001:00015fb0       inflateReset2              0000000180016fb0 f   inflate.obj
 0001:000160b0       inflatePrime               00000001800170b0 f   inflate.obj
 0001:00016190       inflateMark                0000000180017190 f   inflate.obj
 0001:00016230       inflateGetHeader           0000000180017230 f   inflate.obj
 0001:000162a0       inflateInit_               00000001800172a0 f   inflate.obj
 0001:000162e0       inflateInit2_              00000001800172e0 f   inflate.obj
 0001:00016450       inflateSyncPoint           0000000180017450 f   inflate.obj
 0001:000164c0       inflateUndermine           00000001800174c0 f   inflate.obj
 0001:00016510       inflateValidate            0000000180017510 f   inflate.obj
 0001:00016580       inflateCodesUsed           0000000180017580 f   inflate.obj
 0001:000165e0       inflateResetKeep           00000001800175e0 f   inflate.obj
 0001:00017b40       inflate_table              0000000180018b40 f   inftrees.obj
 0001:00018520       fill_fopen64_filefunc      0000000180019520 f   ioapi.obj
 0001:000185b0       fill_fopen_filefunc        00000001800195b0 f   ioapi.obj
 0001:00018640       call_zopen64               0000000180019640 f   ioapi.obj
 0001:000186b0       call_zseek64               00000001800196b0 f   ioapi.obj
 0001:00018740       call_ztell64               0000000180019740 f   ioapi.obj
 0001:000187b0       fill_zlib_filefunc64_32_def_from_filefunc32 00000001800197b0 f   ioapi.obj
 0001:00018e60       fill_win32_filefunc        0000000180019e60 f   iowin32.obj
 0001:00018ef0       fill_win32_filefunc64      0000000180019ef0 f   iowin32.obj
 0001:00018f80       fill_win32_filefunc64A     0000000180019f80 f   iowin32.obj
 0001:00019010       fill_win32_filefunc64W     000000018001a010 f   iowin32.obj
 0001:000190a0       win32_open_file_func       000000018001a0a0 f   iowin32.obj
 0001:00019150       win32_read_file_func       000000018001a150 f   iowin32.obj
 0001:00019200       win32_write_file_func      000000018001a200 f   iowin32.obj
 0001:000192b0       win32_tell64_file_func     000000018001a2b0 f   iowin32.obj
 0001:00019350       win32_seek64_file_func     000000018001a350 f   iowin32.obj
 0001:00019440       win32_close_file_func      000000018001a440 f   iowin32.obj
 0001:000194a0       win32_error_file_func      000000018001a4a0 f   iowin32.obj
 0001:00019630       win32_open64_file_func     000000018001a630 f   iowin32.obj
 0001:000196e0       win32_open64_file_funcA    000000018001a6e0 f   iowin32.obj
 0001:00019790       win32_open64_file_funcW    000000018001a790 f   iowin32.obj
 0001:000198e0       win32_tell_file_func       000000018001a8e0 f   iowin32.obj
 0001:00019980       win32_seek_file_func       000000018001a980 f   iowin32.obj
 0001:00019d70       _tr_init                   000000018001ad70 f   trees.obj
 0001:00019e30       _tr_tally                  000000018001ae30 f   trees.obj
 0001:00019fe0       _tr_flush_block            000000018001afe0 f   trees.obj
 0001:0001a460       _tr_flush_bits             000000018001b460 f   trees.obj
 0001:0001a480       _tr_align                  000000018001b480 f   trees.obj
 0001:0001a790       _tr_stored_block           000000018001b790 f   trees.obj
 0001:0001ea40       uncompress                 000000018001fa40 f   uncompr.obj
 0001:0001ea80       uncompress2                000000018001fa80 f   uncompr.obj
 0001:0001ed70       unzStringFileNameCompare   000000018001fd70 f   unzip.obj
 0001:0001edd0       unzOpen                    000000018001fdd0 f   unzip.obj
 0001:0001ee00       unzOpen64                  000000018001fe00 f   unzip.obj
 0001:0001ee30       unzOpen2                   000000018001fe30 f   unzip.obj
 0001:0001eea0       unzOpen2_64                000000018001fea0 f   unzip.obj
 0001:0001ef30       unzClose                   000000018001ff30 f   unzip.obj
 0001:0001efb0       unzGetGlobalInfo           000000018001ffb0 f   unzip.obj
 0001:0001f000       unzGetGlobalInfo64         0000000180020000 f   unzip.obj
 0001:0001f050       unzGetGlobalComment        0000000180020050 f   unzip.obj
 0001:0001f150       unzGoToFirstFile           0000000180020150 f   unzip.obj
 0001:0001f240       unzGoToNextFile            0000000180020240 f   unzip.obj
 0001:0001f3a0       unzLocateFile              00000001800203a0 f   unzip.obj
 0001:0001f570       unzGetFilePos              0000000180020570 f   unzip.obj
 0001:0001f5c0       unzGoToFilePos             00000001800205c0 f   unzip.obj
 0001:0001f610       unzGetFilePos64            0000000180020610 f   unzip.obj
 0001:0001f690       unzGoToFilePos64           0000000180020690 f   unzip.obj
 0001:0001f780       unzGetCurrentFileInfo64    0000000180020780 f   unzip.obj
 0001:0001f800       unzGetCurrentFileInfo      0000000180020800 f   unzip.obj
 0001:0001f9b0       unzGetCurrentFileZStreamPos64 00000001800209b0 f   unzip.obj
 0001:0001fa10       unzOpenCurrentFile         0000000180020a10 f   unzip.obj
 0001:0001fa40       unzOpenCurrentFilePassword 0000000180020a40 f   unzip.obj
 0001:0001fa80       unzOpenCurrentFile2        0000000180020a80 f   unzip.obj
 0001:0001fad0       unzOpenCurrentFile3        0000000180020ad0 f   unzip.obj
 0001:0001fee0       unzCloseCurrentFile        0000000180020ee0 f   unzip.obj
 0001:0001fff0       unzReadCurrentFile         0000000180020ff0 f   unzip.obj
 0001:00020570       unztell                    0000000180021570 f   unzip.obj
 0001:000205d0       unztell64                  00000001800215d0 f   unzip.obj
 0001:00020630       unzeof                     0000000180021630 f   unzip.obj
 0001:000206a0       unzGetLocalExtrafield      00000001800216a0 f   unzip.obj
 0001:000207e0       unzGetOffset64             00000001800217e0 f   unzip.obj
 0001:00020860       unzGetOffset               0000000180021860 f   unzip.obj
 0001:000208a0       unzSetOffset64             00000001800218a0 f   unzip.obj
 0001:00020990       unzSetOffset               0000000180021990 f   unzip.obj
 0001:00023590       zipOpen                    0000000180024590 f   zip.obj
 0001:000235c0       zipOpen64                  00000001800245c0 f   zip.obj
 0001:000235f0       zipOpen2                   00000001800245f0 f   zip.obj
 0001:00023680       zipOpen2_64                0000000180024680 f   zip.obj
 0001:00023730       zipOpenNewFileInZip        0000000180024730 f   zip.obj
 0001:00023820       zipOpenNewFileInZip64      0000000180024820 f   zip.obj
 0001:00023910       zipOpenNewFileInZip2       0000000180024910 f   zip.obj
 0001:00023a00       zipOpenNewFileInZip2_64    0000000180024a00 f   zip.obj
 0001:00023af0       zipOpenNewFileInZip3       0000000180024af0 f   zip.obj
 0001:00023bf0       zipOpenNewFileInZip3_64    0000000180024bf0 f   zip.obj
 0001:00023cf0       zipOpenNewFileInZip4       0000000180024cf0 f   zip.obj
 0001:00023df0       zipOpenNewFileInZip4_64    0000000180024df0 f   zip.obj
 0001:00024760       zipWriteInFileInZip        0000000180025760 f   zip.obj
 0001:00024a40       zipCloseFileInZip          0000000180025a40 f   zip.obj
 0001:00024a70       zipCloseFileInZipRaw       0000000180025a70 f   zip.obj
 0001:00024ab0       zipCloseFileInZipRaw64     0000000180025ab0 f   zip.obj
 0001:000252b0       zipClose                   00000001800262b0 f   zip.obj
 0001:00025500       zipRemoveExtraInfoBlock    0000000180026500 f   zip.obj
 0001:00026940       LoadCentralDirectoryRecord 0000000180027940 f   zip.obj
 0001:000270d0       zipOpen3                   00000001800280d0 f   zip.obj
 0001:000272e0       Write_LocalFileHeader      00000001800282e0 f   zip.obj
 0001:000278a0       Write_Zip64EndOfCentralDirectoryLocator 00000001800288a0 f   zip.obj
 0001:00027990       Write_Zip64EndOfCentralDirectoryRecord 0000000180028990 f   zip.obj
 0001:00027ba0       Write_EndOfCentralDirectoryRecord 0000000180028ba0 f   zip.obj
 0001:00027de0       Write_GlobalComment        0000000180028de0 f   zip.obj
 0001:000290d0       zlibVersion                000000018002a0d0 f   zutil.obj
 0001:000290e0       zlibCompileFlags           000000018002a0e0 f   zutil.obj
 0001:00029220       zError                     000000018002a220 f   zutil.obj
 0001:00029250       zcalloc                    000000018002a250 f   zutil.obj
 0001:00029280       zcfree                     000000018002a280 f   zutil.obj
 0001:00029311       CreateFileA                000000018002a311 f   kernel32:KERNEL32.dll
 0001:00029317       CreateFileW                000000018002a317 f   kernel32:KERNEL32.dll
 0001:0002931d       ReadFile                   000000018002a31d f   kernel32:KERNEL32.dll
 0001:00029323       SetFilePointer             000000018002a323 f   kernel32:KERNEL32.dll
 0001:00029329       WriteFile                  000000018002a329 f   kernel32:KERNEL32.dll
 0001:0002932f       CloseHandle                000000018002a32f f   kernel32:KERNEL32.dll
 0001:00029335       GetLastError               000000018002a335 f   kernel32:KERNEL32.dll
 0001:00029350       _alloca_probe              000000018002a350 f   MSVCRTD:_chkstk_.obj
 0001:00029350       __chkstk                   000000018002a350 f   MSVCRTD:_chkstk_.obj
 0001:000298a0       _CRT_INIT                  000000018002a8a0 f   MSVCRTD:dll_dllmain.obj
 0001:000298e0       _DllMainCRTStartup         000000018002a8e0 f   MSVCRTD:dll_dllmain.obj
 0001:00029a20       __security_init_cookie     000000018002aa20 f   MSVCRTD:gs_support.obj
 0001:00029ac0       DllMain                    000000018002aac0 f   MSVCRTD:dll_dllmain_stub.obj
 0001:00029b10       ?__scrt_initialize_type_info@@YAXXZ 000000018002ab10 f   MSVCRTD:tncleanup.obj
 0001:00029b30       ?__scrt_uninitialize_type_info@@YAXXZ 000000018002ab30 f   MSVCRTD:tncleanup.obj
 0001:00029b50       __local_stdio_scanf_options 000000018002ab50 f i MSVCRTD:default_local_stdio_options.obj
 0001:00029b60       __scrt_initialize_default_local_stdio_options 000000018002ab60 f   MSVCRTD:default_local_stdio_options.obj
 0001:00029bc0       ??$__crt_fast_decode_pointer@PEAP6AXXZ@@YAPEAP6AXXZQEAP6AXXZ@Z 000000018002abc0 f i MSVCRTD:utility.obj
 0001:00029c10       ??$__crt_fast_encode_pointer@PEAP6AXXZ@@YAPEAP6AXXZQEAP6AXXZ@Z 000000018002ac10 f i MSVCRTD:utility.obj
 0001:00029c60       ?__crt_rotate_pointer_value@@YA_K_KH@Z 000000018002ac60 f i MSVCRTD:utility.obj
 0001:00029c80       ?configure_argv@__scrt_narrow_argv_policy@@SAHXZ 000000018002ac80 f i MSVCRTD:utility.obj
 0001:00029da0       ?initialize_environment@__scrt_narrow_environment_policy@@SAHXZ 000000018002ada0 f i MSVCRTD:utility.obj
 0001:00029e70       NtCurrentTeb               000000018002ae70 f i MSVCRTD:utility.obj
 0001:00029e80       __scrt_acquire_startup_lock 000000018002ae80 f   MSVCRTD:utility.obj
 0001:00029f00       __scrt_dllmain_after_initialize_c 000000018002af00 f   MSVCRTD:utility.obj
 0001:00029f40       __scrt_dllmain_before_initialize_c 000000018002af40 f   MSVCRTD:utility.obj
 0001:00029f70       __scrt_dllmain_crt_thread_attach 000000018002af70 f   MSVCRTD:utility.obj
 0001:00029fb0       __scrt_dllmain_crt_thread_detach 000000018002afb0 f   MSVCRTD:utility.obj
 0001:00029fd0       __scrt_dllmain_exception_filter 000000018002afd0 f   MSVCRTD:utility.obj
 0001:0002a050       __scrt_dllmain_uninitialize_c 000000018002b050 f   MSVCRTD:utility.obj
 0001:0002a090       __scrt_dllmain_uninitialize_critical 000000018002b090 f   MSVCRTD:utility.obj
 0001:0002a0b0       __scrt_initialize_crt      000000018002b0b0 f   MSVCRTD:utility.obj
 0001:0002a110       __scrt_initialize_onexit_tables 000000018002b110 f   MSVCRTD:utility.obj
 0001:0002a260       __scrt_is_nonwritable_in_current_image 000000018002b260 f   MSVCRTD:utility.obj
 0001:0002a310       __scrt_release_startup_lock 000000018002b310 f   MSVCRTD:utility.obj
 0001:0002a350       __scrt_uninitialize_crt    000000018002b350 f   MSVCRTD:utility.obj
 0001:0002a3a0       _onexit                    000000018002b3a0 f   MSVCRTD:utility.obj
 0001:0002a450       at_quick_exit              000000018002b450 f   MSVCRTD:utility.obj
 0001:0002a4c0       atexit                     000000018002b4c0 f   MSVCRTD:utility.obj
 0001:0002a500       __scrt_get_dyn_tls_init_callback 000000018002b500 f   MSVCRTD:dyn_tls_init.obj
 0001:0002a510       __crt_debugger_hook        000000018002b510 f   MSVCRTD:utility_desktop.obj
 0001:0002a530       __scrt_fastfail            000000018002b530 f   MSVCRTD:utility_desktop.obj
 0001:0002a730       __scrt_get_show_window_mode 000000018002b730 f   MSVCRTD:utility_desktop.obj
 0001:0002a7a0       __scrt_initialize_winrt    000000018002b7a0 f   MSVCRTD:utility_desktop.obj
 0001:0002a7b0       __scrt_is_managed_app      000000018002b7b0 f   MSVCRTD:utility_desktop.obj
 0001:0002a880       __scrt_set_unhandled_exception_filter 000000018002b880 f   MSVCRTD:utility_desktop.obj
 0001:0002a8a0       __scrt_unhandled_exception_filter 000000018002b8a0 f   MSVCRTD:utility_desktop.obj
 0001:0002a930       _RTC_Initialize            000000018002b930 f   MSVCRTD:_initsect_.obj
 0001:0002a990       _RTC_Terminate             000000018002b990 f   MSVCRTD:_initsect_.obj
 0001:0002a9f0       _guard_check_icall         000000018002b9f0 f i MSVCRTD:checkcfg.obj
 0001:0002aa10       __isa_available_init       000000018002ba10 f   MSVCRTD:_cpu_disp_.obj
 0001:0002ae60       _get_startup_argv_mode     000000018002be60 f   MSVCRTD:argv_mode.obj
 0001:0002ae70       __scrt_is_ucrt_dll_in_use  000000018002be70 f   MSVCRTD:ucrt_detection.obj
 0001:0002aea0       _guard_check_icall_nop     000000018002bea0 f i MSVCRTD:guard_support.obj
 0001:0002aeb0       ReadNoFence64              000000018002beb0 f i MSVCRTD:guard_support.obj
 0001:0002aee0       ReadPointerNoFence         000000018002bee0 f i MSVCRTD:guard_support.obj
 0001:0002af00       __guard_ss_common_verify_stub 000000018002bf00 f i MSVCRTD:guard_support.obj
 0001:0002af10       _guard_icall_checks_enforced 000000018002bf10 f i MSVCRTD:guard_support.obj
 0001:0002af60       _guard_rf_checks_enforced  000000018002bf60 f i MSVCRTD:guard_support.obj
 0001:0002afb0       __GSHandlerCheck           000000018002bfb0 f   MSVCRTD:_gshandler_.obj
 0001:0002b000       __GSHandlerCheckCommon     000000018002c000 f   MSVCRTD:_gshandler_.obj
 0001:0002b150       __security_check_cookie    000000018002c150 f   MSVCRTD:_amdsecgs_.obj
 0001:0002b180       __raise_securityfailure    000000018002c180 f   MSVCRTD:gs_report.obj
 0001:0002b1d0       __report_gsfailure         000000018002c1d0 f   MSVCRTD:gs_report.obj
 0001:0002b2e0       __report_rangecheckfailure 000000018002c2e0 f   MSVCRTD:gs_report.obj
 0001:0002b300       __report_securityfailure   000000018002c300 f   MSVCRTD:gs_report.obj
 0001:0002b3d0       __report_securityfailureEx 000000018002c3d0 f   MSVCRTD:gs_report.obj
 0001:0002b6ce       memcpy                     000000018002c6ce f   vcruntimed:VCRUNTIME140D.dll
 0001:0002b6d4       memset                     000000018002c6d4 f   vcruntimed:VCRUNTIME140D.dll
 0001:0002b6da       memchr                     000000018002c6da f   vcruntimed:VCRUNTIME140D.dll
 0001:0002b6e0       __C_specific_handler       000000018002c6e0 f   vcruntimed:VCRUNTIME140D.dll
 0001:0002b6e6       __std_type_info_destroy_list 000000018002c6e6 f   vcruntimed:VCRUNTIME140D.dll
 0001:0002b6ec       __stdio_common_vsprintf    000000018002c6ec f   ucrtd:ucrtbased.dll
 0001:0002b6f2       strlen                     000000018002c6f2 f   ucrtd:ucrtbased.dll
 0001:0002b6f8       free                       000000018002c6f8 f   ucrtd:ucrtbased.dll
 0001:0002b6fe       malloc                     000000018002c6fe f   ucrtd:ucrtbased.dll
 0001:0002b704       wcstombs                   000000018002c704 f   ucrtd:ucrtbased.dll
 0001:0002b70a       _wopen                     000000018002c70a f   ucrtd:ucrtbased.dll
 0001:0002b710       _lseeki64                  000000018002c710 f   ucrtd:ucrtbased.dll
 0001:0002b716       _open                      000000018002c716 f   ucrtd:ucrtbased.dll
 0001:0002b71c       _errno                     000000018002c71c f   ucrtd:ucrtbased.dll
 0001:0002b722       strerror                   000000018002c722 f   ucrtd:ucrtbased.dll
 0001:0002b728       _close                     000000018002c728 f   ucrtd:ucrtbased.dll
 0001:0002b72e       _read                      000000018002c72e f   ucrtd:ucrtbased.dll
 0001:0002b734       _write                     000000018002c734 f   ucrtd:ucrtbased.dll
 0001:0002b73a       fclose                     000000018002c73a f   ucrtd:ucrtbased.dll
 0001:0002b740       ferror                     000000018002c740 f   ucrtd:ucrtbased.dll
 0001:0002b746       fopen                      000000018002c746 f   ucrtd:ucrtbased.dll
 0001:0002b74c       fread                      000000018002c74c f   ucrtd:ucrtbased.dll
 0001:0002b752       fseek                      000000018002c752 f   ucrtd:ucrtbased.dll
 0001:0002b758       _fseeki64                  000000018002c758 f   ucrtd:ucrtbased.dll
 0001:0002b75e       ftell                      000000018002c75e f   ucrtd:ucrtbased.dll
 0001:0002b764       _ftelli64                  000000018002c764 f   ucrtd:ucrtbased.dll
 0001:0002b76a       fwrite                     000000018002c76a f   ucrtd:ucrtbased.dll
 0001:0002b770       strcmp                     000000018002c770 f   ucrtd:ucrtbased.dll
 0001:0002b776       srand                      000000018002c776 f   ucrtd:ucrtbased.dll
 0001:0002b77c       rand                       000000018002c77c f   ucrtd:ucrtbased.dll
 0001:0002b782       _time64                    000000018002c782 f   ucrtd:ucrtbased.dll
 0001:0002b788       _initterm                  000000018002c788 f   ucrtd:ucrtbased.dll
 0001:0002b78e       _initterm_e                000000018002c78e f   ucrtd:ucrtbased.dll
 0001:0002b794       _seh_filter_dll            000000018002c794 f   ucrtd:ucrtbased.dll
 0001:0002b79a       _configure_narrow_argv     000000018002c79a f   ucrtd:ucrtbased.dll
 0001:0002b7a0       _initialize_narrow_environment 000000018002c7a0 f   ucrtd:ucrtbased.dll
 0001:0002b7a6       _initialize_onexit_table   000000018002c7a6 f   ucrtd:ucrtbased.dll
 0001:0002b7ac       _register_onexit_function  000000018002c7ac f   ucrtd:ucrtbased.dll
 0001:0002b7b2       _execute_onexit_table      000000018002c7b2 f   ucrtd:ucrtbased.dll
 0001:0002b7b8       _crt_atexit                000000018002c7b8 f   ucrtd:ucrtbased.dll
 0001:0002b7be       _crt_at_quick_exit         000000018002c7be f   ucrtd:ucrtbased.dll
 0001:0002b7c4       _cexit                     000000018002c7c4 f   ucrtd:ucrtbased.dll
 0001:0002b7ca       terminate                  000000018002c7ca f   ucrtd:ucrtbased.dll
 0001:0002b7d0       QueryPerformanceCounter    000000018002c7d0 f   kernel32:KERNEL32.dll
 0001:0002b7d6       GetCurrentProcessId        000000018002c7d6 f   kernel32:KERNEL32.dll
 0001:0002b7dc       GetCurrentThreadId         000000018002c7dc f   kernel32:KERNEL32.dll
 0001:0002b7e2       GetSystemTimeAsFileTime    000000018002c7e2 f   kernel32:KERNEL32.dll
 0001:0002b7e8       DisableThreadLibraryCalls  000000018002c7e8 f   kernel32:KERNEL32.dll
 0001:0002b7ee       InitializeSListHead        000000018002c7ee f   kernel32:KERNEL32.dll
 0001:0002b7f4       RtlCaptureContext          000000018002c7f4 f   kernel32:KERNEL32.dll
 0001:0002b7fa       RtlLookupFunctionEntry     000000018002c7fa f   kernel32:KERNEL32.dll
 0001:0002b800       RtlVirtualUnwind           000000018002c800 f   kernel32:KERNEL32.dll
 0001:0002b806       IsDebuggerPresent          000000018002c806 f   kernel32:KERNEL32.dll
 0001:0002b80c       UnhandledExceptionFilter   000000018002c80c f   kernel32:KERNEL32.dll
 0001:0002b812       SetUnhandledExceptionFilter 000000018002c812 f   kernel32:KERNEL32.dll
 0001:0002b818       GetStartupInfoW            000000018002c818 f   kernel32:KERNEL32.dll
 0001:0002b81e       IsProcessorFeaturePresent  000000018002c81e f   kernel32:KERNEL32.dll
 0001:0002b824       GetModuleHandleW           000000018002c824 f   kernel32:KERNEL32.dll
 0001:0002b82a       GetCurrentProcess          000000018002c82a f   kernel32:KERNEL32.dll
 0001:0002b830       TerminateProcess           000000018002c830 f   kernel32:KERNEL32.dll
 0001:0002b840       __vcrt_initialize          000000018002c840 f   MSVCRTD:ucrt_stubs.obj
 0001:0002b840       __acrt_initialize          000000018002c840 f   MSVCRTD:ucrt_stubs.obj
 0001:0002b840       __scrt_stub_for_acrt_initialize 000000018002c840 f   MSVCRTD:ucrt_stubs.obj
 0001:0002b850       __acrt_thread_attach       000000018002c850 f   MSVCRTD:ucrt_stubs.obj
 0001:0002b850       __scrt_stub_for_acrt_thread_attach 000000018002c850 f   MSVCRTD:ucrt_stubs.obj
 0001:0002b850       __vcrt_thread_attach       000000018002c850 f   MSVCRTD:ucrt_stubs.obj
 0001:0002b860       __vcrt_thread_detach       000000018002c860 f   MSVCRTD:ucrt_stubs.obj
 0001:0002b860       __scrt_stub_for_acrt_thread_detach 000000018002c860 f   MSVCRTD:ucrt_stubs.obj
 0001:0002b860       __acrt_thread_detach       000000018002c860 f   MSVCRTD:ucrt_stubs.obj
 0001:0002b870       __acrt_uninitialize        000000018002c870 f   MSVCRTD:ucrt_stubs.obj
 0001:0002b870       __scrt_stub_for_acrt_uninitialize 000000018002c870 f   MSVCRTD:ucrt_stubs.obj
 0001:0002b870       __vcrt_uninitialize        000000018002c870 f   MSVCRTD:ucrt_stubs.obj
 0001:0002b880       __scrt_stub_for_acrt_uninitialize_critical 000000018002c880 f   MSVCRTD:ucrt_stubs.obj
 0001:0002b880       __vcrt_uninitialize_critical 000000018002c880 f   MSVCRTD:ucrt_stubs.obj
 0001:0002b880       __acrt_uninitialize_critical 000000018002c880 f   MSVCRTD:ucrt_stubs.obj
 0001:0002b890       __scrt_stub_for_is_c_termination_complete 000000018002c890 f   MSVCRTD:ucrt_stubs.obj
 0001:0002b890       _is_c_termination_complete 000000018002c890 f   MSVCRTD:ucrt_stubs.obj
 0001:0002cc90       _guard_dispatch_icall_nop  000000018002dc90 f   MSVCRTD:_guard_dispatch_.obj
 0001:0002ccb0       __guard_ss_verify_failure  000000018002dcb0 f   MSVCRTD:_rfgfailure_.obj
 0001:0002ccbb       __guard_ss_verify_failure_rcx 000000018002dcbb     MSVCRTD:_rfgfailure_.obj
 0001:0002ccc1       __guard_ss_verify_failure_rdx 000000018002dcc1     MSVCRTD:_rfgfailure_.obj
 0001:0002ccc7       __guard_ss_verify_failure_r8 000000018002dcc7     MSVCRTD:_rfgfailure_.obj
 0001:0002cccd       __guard_ss_verify_failure_r9 000000018002dccd     MSVCRTD:_rfgfailure_.obj
 0001:0002ccd3       __guard_ss_verify_failure_r10 000000018002dcd3     MSVCRTD:_rfgfailure_.obj
 0001:0002cce0       __guard_ss_verify_failure_default 000000018002dce0 f   MSVCRTD:_rfgfailure_.obj
 0001:0002cd40       __guard_ss_verify_sp       000000018002dd40 f   MSVCRTD:_rfgfailure_.obj
 0001:0002cd50       __guard_ss_verify_sp_default 000000018002dd50 f   MSVCRTD:_rfgfailure_.obj
 0002:00000000       __xc_a                     0000000180030000     MSVCRTD:initializers.obj
 0002:00000110       __xc_z                     0000000180030110     MSVCRTD:initializers.obj
 0002:00000220       __xi_a                     0000000180030220     MSVCRTD:initializers.obj
 0002:00000330       __xi_z                     0000000180030330     MSVCRTD:initializers.obj
 0002:00000440       __xp_a                     0000000180030440     MSVCRTD:initializers.obj
 0002:00000550       __xp_z                     0000000180030550     MSVCRTD:initializers.obj
 0002:00000660       __xt_a                     0000000180030660     MSVCRTD:initializers.obj
 0002:00000770       __xt_z                     0000000180030770     MSVCRTD:initializers.obj
 0002:00002ef0       deflate_copyright          0000000180032ef0     deflate.obj
 0002:000044e0       inflate_copyright          00000001800344e0     inftrees.obj
 0002:00004650       _length_code               0000000180034650     trees.obj
 0002:00004750       _dist_code                 0000000180034750     trees.obj
 0002:00005340       unz_copyright              0000000180035340     unzip.obj
 0002:000053b0       zip_copyright              00000001800353b0     zip.obj
 0002:00005410       z_errmsg                   0000000180035410     zutil.obj
 0002:00005470       _pDefaultRawDllMain        0000000180035470     MSVCRTD:dll_dllmain.obj
 0002:00005470       _pRawDllMain               0000000180035470     MSVCRTD:dll_dllmain.obj
 0002:000054e0       _load_config_used          00000001800354e0     MSVCRTD:loadcfg.obj
 0002:000058d8       __rtc_iaa                  00000001800358d8     MSVCRTD:_initsect_.obj
 0002:000059e8       __rtc_izz                  00000001800359e8     MSVCRTD:_initsect_.obj
 0002:00005af8       __rtc_taa                  0000000180035af8     MSVCRTD:_initsect_.obj
 0002:00005c08       __rtc_tzz                  0000000180035c08     MSVCRTD:_initsect_.obj
 0003:00000840       __scrt_native_dllmain_reason 0000000180038840     MSVCRTD:utility.obj
 0003:00000848       __security_cookie          0000000180038848     MSVCRTD:gs_cookie.obj
 0003:00000850       __security_cookie_complement 0000000180038850     MSVCRTD:gs_cookie.obj
 0003:00000860       __isa_available            0000000180038860     MSVCRTD:_cpu_disp_.obj
 0003:00000864       __isa_enabled              0000000180038864     MSVCRTD:_cpu_disp_.obj
 0003:00000868       __memcpy_nt_iters          0000000180038868     MSVCRTD:_cpu_disp_.obj
 0003:00000880       __scrt_ucrt_dll_is_in_use  0000000180038880     MSVCRTD:ucrt_stubs.obj
 0003:000009b0       ?__type_info_root_node@@3U__type_info_node@@A 00000001800389b0     MSVCRTD:tncleanup.obj
 0003:000009c8       ?_OptionsStorage@?1??__local_stdio_printf_options@@9@4_KA 00000001800389c8     MSVCRTD:default_local_stdio_options.obj
 0003:000009d8       ?_OptionsStorage@?1??__local_stdio_scanf_options@@9@4_KA 00000001800389d8     MSVCRTD:default_local_stdio_options.obj
 0003:00000a1c       __scrt_current_native_startup_state 0000000180038a1c     MSVCRTD:utility.obj
 0003:00000a20       __scrt_native_startup_lock 0000000180038a20     MSVCRTD:utility.obj
 0003:00000a38       __scrt_debugger_hook_flag  0000000180038a38     MSVCRTD:utility_desktop.obj
 0003:00000a3c       __favor                    0000000180038a3c     MSVCRTD:_cpu_disp_.obj
 0003:000010c8       ?_OptionsStorage@?1??__local_stdio_printf_options@@9@9 00000001800390c8     <common>
 0003:000010e0       __dyn_tls_init_callback    00000001800390e0     <common>
 0005:00000000       __imp_CreateFileA          000000018003c000     kernel32:KERNEL32.dll
 0005:00000008       __imp_CreateFileW          000000018003c008     kernel32:KERNEL32.dll
 0005:00000010       __imp_ReadFile             000000018003c010     kernel32:KERNEL32.dll
 0005:00000018       __imp_SetFilePointer       000000018003c018     kernel32:KERNEL32.dll
 0005:00000020       __imp_WriteFile            000000018003c020     kernel32:KERNEL32.dll
 0005:00000028       __imp_CloseHandle          000000018003c028     kernel32:KERNEL32.dll
 0005:00000030       __imp_GetLastError         000000018003c030     kernel32:KERNEL32.dll
 0005:00000038       __imp_GetCurrentProcess    000000018003c038     kernel32:KERNEL32.dll
 0005:00000040       __imp_GetModuleHandleW     000000018003c040     kernel32:KERNEL32.dll
 0005:00000048       __imp_IsProcessorFeaturePresent 000000018003c048     kernel32:KERNEL32.dll
 0005:00000050       __imp_GetStartupInfoW      000000018003c050     kernel32:KERNEL32.dll
 0005:00000058       __imp_SetUnhandledExceptionFilter 000000018003c058     kernel32:KERNEL32.dll
 0005:00000060       __imp_UnhandledExceptionFilter 000000018003c060     kernel32:KERNEL32.dll
 0005:00000068       __imp_IsDebuggerPresent    000000018003c068     kernel32:KERNEL32.dll
 0005:00000070       __imp_RtlVirtualUnwind     000000018003c070     kernel32:KERNEL32.dll
 0005:00000078       __imp_RtlLookupFunctionEntry 000000018003c078     kernel32:KERNEL32.dll
 0005:00000080       __imp_RtlCaptureContext    000000018003c080     kernel32:KERNEL32.dll
 0005:00000088       __imp_InitializeSListHead  000000018003c088     kernel32:KERNEL32.dll
 0005:00000090       __imp_DisableThreadLibraryCalls 000000018003c090     kernel32:KERNEL32.dll
 0005:00000098       __imp_GetSystemTimeAsFileTime 000000018003c098     kernel32:KERNEL32.dll
 0005:000000a0       __imp_GetCurrentThreadId   000000018003c0a0     kernel32:KERNEL32.dll
 0005:000000a8       __imp_GetCurrentProcessId  000000018003c0a8     kernel32:KERNEL32.dll
 0005:000000b0       __imp_QueryPerformanceCounter 000000018003c0b0     kernel32:KERNEL32.dll
 0005:000000b8       __imp_TerminateProcess     000000018003c0b8     kernel32:KERNEL32.dll
 0005:000000c0       \177KERNEL32_NULL_THUNK_DATA 000000018003c0c0     kernel32:KERNEL32.dll
 0005:00000138       __imp___C_specific_handler 000000018003c138     vcruntimed:VCRUNTIME140D.dll
 0005:00000140       __imp___std_type_info_destroy_list 000000018003c140     vcruntimed:VCRUNTIME140D.dll
 0005:00000148       __imp_memchr               000000018003c148     vcruntimed:VCRUNTIME140D.dll
 0005:00000150       __imp_memcpy               000000018003c150     vcruntimed:VCRUNTIME140D.dll
 0005:00000158       __imp_memset               000000018003c158     vcruntimed:VCRUNTIME140D.dll
 0005:00000160       \177VCRUNTIME140D_NULL_THUNK_DATA 000000018003c160     vcruntimed:VCRUNTIME140D.dll
 0005:000001c0       __imp_fseek                000000018003c1c0     ucrtd:ucrtbased.dll
 0005:000001c8       __imp__fseeki64            000000018003c1c8     ucrtd:ucrtbased.dll
 0005:000001d0       __imp_ftell                000000018003c1d0     ucrtd:ucrtbased.dll
 0005:000001d8       __imp__ftelli64            000000018003c1d8     ucrtd:ucrtbased.dll
 0005:000001e0       __imp_strerror             000000018003c1e0     ucrtd:ucrtbased.dll
 0005:000001e8       __imp_strcmp               000000018003c1e8     ucrtd:ucrtbased.dll
 0005:000001f0       __imp_srand                000000018003c1f0     ucrtd:ucrtbased.dll
 0005:000001f8       __imp_rand                 000000018003c1f8     ucrtd:ucrtbased.dll
 0005:00000200       __imp__time64              000000018003c200     ucrtd:ucrtbased.dll
 0005:00000208       __imp__initterm            000000018003c208     ucrtd:ucrtbased.dll
 0005:00000210       __imp__initterm_e          000000018003c210     ucrtd:ucrtbased.dll
 0005:00000218       __imp__seh_filter_dll      000000018003c218     ucrtd:ucrtbased.dll
 0005:00000220       __imp__configure_narrow_argv 000000018003c220     ucrtd:ucrtbased.dll
 0005:00000228       __imp__initialize_narrow_environment 000000018003c228     ucrtd:ucrtbased.dll
 0005:00000230       __imp_fopen                000000018003c230     ucrtd:ucrtbased.dll
 0005:00000238       __imp__register_onexit_function 000000018003c238     ucrtd:ucrtbased.dll
 0005:00000240       __imp__execute_onexit_table 000000018003c240     ucrtd:ucrtbased.dll
 0005:00000248       __imp__crt_atexit          000000018003c248     ucrtd:ucrtbased.dll
 0005:00000250       __imp__crt_at_quick_exit   000000018003c250     ucrtd:ucrtbased.dll
 0005:00000258       __imp__cexit               000000018003c258     ucrtd:ucrtbased.dll
 0005:00000260       __imp_terminate            000000018003c260     ucrtd:ucrtbased.dll
 0005:00000268       __imp_ferror               000000018003c268     ucrtd:ucrtbased.dll
 0005:00000270       __imp__errno               000000018003c270     ucrtd:ucrtbased.dll
 0005:00000278       __imp__open                000000018003c278     ucrtd:ucrtbased.dll
 0005:00000280       __imp__lseeki64            000000018003c280     ucrtd:ucrtbased.dll
 0005:00000288       __imp__wopen               000000018003c288     ucrtd:ucrtbased.dll
 0005:00000290       __imp_wcstombs             000000018003c290     ucrtd:ucrtbased.dll
 0005:00000298       __imp_malloc               000000018003c298     ucrtd:ucrtbased.dll
 0005:000002a0       __imp_free                 000000018003c2a0     ucrtd:ucrtbased.dll
 0005:000002a8       __imp_strlen               000000018003c2a8     ucrtd:ucrtbased.dll
 0005:000002b0       __imp___stdio_common_vsprintf 000000018003c2b0     ucrtd:ucrtbased.dll
 0005:000002b8       __imp_fread                000000018003c2b8     ucrtd:ucrtbased.dll
 0005:000002c0       __imp_fclose               000000018003c2c0     ucrtd:ucrtbased.dll
 0005:000002c8       __imp__write               000000018003c2c8     ucrtd:ucrtbased.dll
 0005:000002d0       __imp__read                000000018003c2d0     ucrtd:ucrtbased.dll
 0005:000002d8       __imp__initialize_onexit_table 000000018003c2d8     ucrtd:ucrtbased.dll
 0005:000002e0       __imp__close               000000018003c2e0     ucrtd:ucrtbased.dll
 0005:000002e8       __imp_fwrite               000000018003c2e8     ucrtd:ucrtbased.dll
 0005:000002f0       \177ucrtbased_NULL_THUNK_DATA 000000018003c2f0     ucrtd:ucrtbased.dll
 0005:00000380       __IMPORT_DESCRIPTOR_KERNEL32 000000018003c380     kernel32:KERNEL32.dll
 0005:00000394       __IMPORT_DESCRIPTOR_VCRUNTIME140D 000000018003c394     vcruntimed:VCRUNTIME140D.dll
 0005:000003a8       __IMPORT_DESCRIPTOR_ucrtbased 000000018003c3a8     ucrtd:ucrtbased.dll
 0005:000003bc       __NULL_IMPORT_DESCRIPTOR   000000018003c3bc     kernel32:KERNEL32.dll
 0006:00000000       __guard_check_icall_fptr   000000018003d000     MSVCRTD:guard_support.obj
 0006:00000010       __guard_dispatch_icall_fptr 000000018003d010     MSVCRTD:guard_support.obj
 0006:00000020       __guard_ss_verify_failure_fptr 000000018003d020     MSVCRTD:guard_support.obj
 0006:00000030       __guard_ss_verify_sp_fptr  000000018003d030     MSVCRTD:guard_support.obj
